(lp0
(lp1
I1
aI2
aI3
aI4
aI5
aI6
aI7
aI8
aa(lp2
F289.70001220703125
aF289.70001220703125
aF269.6000061035156
aF269.6000061035156
aF269.6000061035156
aF269.6000061035156
aF269.6000061035156
aF269.6000061035156
aa.